; Function Attrs: nounwind sspstrong uwtable
define internal i64 @interrupt_init(i32 noundef %0, ptr noundef readonly captures(none) %1, i64 %2) #1 {
  %4 = alloca [2 x i64], align 16
  call void @llvm.lifetime.start.p0(i64 16, ptr nonnull %4) #17
  store i64 5, ptr %4, align 16, !tbaa !20
  %or.cond.not = icmp ult i32 %0, 2
  br i1 %or.cond.not, label %rb_check_arity.exit, label %5

5:                                                ; preds = %3
  tail call void @rb_error_arity(i32 noundef %0, i32 noundef 0, i32 noundef 1) #19
  unreachable

rb_check_arity.exit:                              ; preds = %3
  %.not = icmp eq i32 %0, 0
  br i1 %.not, label %8, label %6

6:                                                ; preds = %rb_check_arity.exit
  %7 = load i64, ptr %1, align 8, !tbaa !20
  br label %8

8:                                                ; preds = %rb_check_arity.exit, %6
  %9 = phi i64 [ %7, %6 ], [ 4, %rb_check_arity.exit ]
  %10 = getelementptr inbounds nuw i8, ptr %4, i64 8
  store i64 %9, ptr %10, align 8, !tbaa !20
  %11 = call i64 @rb_call_super(i32 noundef 2, ptr noundef nonnull %4) #17
  call void @llvm.lifetime.end.p0(i64 16, ptr nonnull %4) #17
  ret i64 %11
}